; ModuleID = 'source-C-CXX/41/1379.cpp'
source_filename = "source-C-CXX/41/1379.cpp"
target datalayout = "e-m:e-p270:32:32-p271:32:32-p272:64:64-i64:64-f80:128-n8:16:32:64-S128"
target triple = "x86_64-pc-linux-gnu"

%"class.std::ios_base::Init" = type { i8 }
%"class.std::basic_istream" = type { i32 (...)**, i64, %"class.std::basic_ios" }
%"class.std::basic_ios" = type { %"class.std::ios_base", %"class.std::basic_ostream"*, i8, i8, %"class.std::basic_streambuf"*, %"class.std::ctype"*, %"class.std::num_put"*, %"class.std::num_get"* }
%"class.std::ios_base" = type { i32 (...)**, i64, i64, i32, i32, i32, %"struct.std::ios_base::_Callback_list"*, %"struct.std::ios_base::_Words", [8 x %"struct.std::ios_base::_Words"], i32, %"struct.std::ios_base::_Words"*, %"class.std::locale" }
%"struct.std::ios_base::_Callback_list" = type { %"struct.std::ios_base::_Callback_list"*, void (i32, %"class.std::ios_base"*, i32)*, i32, i32 }
%"struct.std::ios_base::_Words" = type { i8*, i64 }
%"class.std::locale" = type { %"class.std::locale::_Impl"* }
%"class.std::locale::_Impl" = type { i32, %"class.std::locale::facet"**, i64, %"class.std::locale::facet"**, i8** }
%"class.std::locale::facet" = type <{ i32 (...)**, i32, [4 x i8] }>
%"class.std::basic_ostream" = type { i32 (...)**, %"class.std::basic_ios" }
%"class.std::basic_streambuf" = type { i32 (...)**, i8*, i8*, i8*, i8*, i8*, i8*, %"class.std::locale" }
%"class.std::ctype" = type <{ %"class.std::locale::facet.base", [4 x i8], %struct.__locale_struct*, i8, [7 x i8], i32*, i32*, i16*, i8, [256 x i8], [256 x i8], i8, [6 x i8] }>
%"class.std::locale::facet.base" = type <{ i32 (...)**, i32 }>
%struct.__locale_struct = type { [13 x %struct.__locale_data*], i16*, i32*, i32*, [13 x i8*] }
%struct.__locale_data = type opaque
%"class.std::num_put" = type { %"class.std::locale::facet.base", [4 x i8] }
%"class.std::num_get" = type { %"class.std::locale::facet.base", [4 x i8] }

@_ZStL8__ioinit = internal global %"class.std::ios_base::Init" zeroinitializer, align 1
@__dso_handle = external hidden global i8
@_ZSt3cin = external global %"class.std::basic_istream", align 8
@_ZSt4cout = external global %"class.std::basic_ostream", align 8
@.str = private unnamed_addr constant [2 x i8] c" \00", align 1
@llvm.global_ctors = appending global [1 x { i32, void ()*, i8* }] [{ i32, void ()*, i8* } { i32 65535, void ()* @_GLOBAL__sub_I_1379.cpp, i8* null }]

declare void @_ZNSt8ios_base4InitC1Ev(%"class.std::ios_base::Init"* nonnull align 1 dereferenceable(1)) unnamed_addr #0

; Function Attrs: nounwind
declare void @_ZNSt8ios_base4InitD1Ev(%"class.std::ios_base::Init"* nonnull align 1 dereferenceable(1)) unnamed_addr #1

; Function Attrs: nofree nounwind
declare i32 @__cxa_atexit(void (i8*)*, i8*, i8*) local_unnamed_addr #2

; Function Attrs: mustprogress norecurse sspstrong uwtable
define dso_local i32 @main() local_unnamed_addr #3 {
  %1 = alloca i32, align 4
  %2 = alloca i32, align 4
  %3 = alloca [110000 x i32], align 16
  %4 = bitcast i32* %1 to i8*
  call void @llvm.lifetime.start.p0i8(i64 4, i8* nonnull %4) #6
  %5 = bitcast i32* %2 to i8*
  call void @llvm.lifetime.start.p0i8(i64 4, i8* nonnull %5) #6
  %6 = call nonnull align 8 dereferenceable(16) %"class.std::basic_istream"* @_ZNSirsERi(%"class.std::basic_istream"* nonnull align 8 dereferenceable(16) @_ZSt3cin, i32* nonnull align 4 dereferenceable(4) %1)
  %7 = bitcast [110000 x i32]* %3 to i8*
  call void @llvm.lifetime.start.p0i8(i64 440000, i8* nonnull %7) #6
  %8 = load i32, i32* %1, align 4, !tbaa !5
  %9 = icmp slt i32 %8, 1
  br i1 %9, label %18, label %10

10:                                               ; preds = %0, %10
  %11 = phi i64 [ %14, %10 ], [ 1, %0 ]
  %12 = getelementptr inbounds [110000 x i32], [110000 x i32]* %3, i64 0, i64 %11
  %13 = call nonnull align 8 dereferenceable(16) %"class.std::basic_istream"* @_ZNSirsERi(%"class.std::basic_istream"* nonnull align 8 dereferenceable(16) @_ZSt3cin, i32* nonnull align 4 dereferenceable(4) %12)
  %14 = add nuw nsw i64 %11, 1
  %15 = load i32, i32* %1, align 4, !tbaa !5
  %16 = sext i32 %15 to i64
  %17 = icmp slt i64 %11, %16
  br i1 %17, label %10, label %18, !llvm.loop !9

18:                                               ; preds = %10, %0
  %19 = call nonnull align 8 dereferenceable(16) %"class.std::basic_istream"* @_ZNSirsERi(%"class.std::basic_istream"* nonnull align 8 dereferenceable(16) @_ZSt3cin, i32* nonnull align 4 dereferenceable(4) %2)
  %20 = load i32, i32* %1, align 4, !tbaa !5
  %21 = load i32, i32* %2, align 4
  %22 = icmp sgt i32 %20, 0
  br i1 %22, label %23, label %140

23:                                               ; preds = %18
  %24 = zext i32 %20 to i64
  %25 = add nuw nsw i32 %20, 1
  %26 = zext i32 %20 to i64
  %27 = sext i32 %25 to i64
  %28 = sub nsw i64 %27, %24
  %29 = sub nsw i64 %27, %24
  br label %39

30:                                               ; preds = %123
  %31 = icmp sgt i32 %20, %124
  br i1 %31, label %32, label %140

32:                                               ; preds = %30
  %33 = getelementptr inbounds [110000 x i32], [110000 x i32]* %3, i64 0, i64 1
  %34 = load i32, i32* %33, align 4, !tbaa !5
  %35 = call nonnull align 8 dereferenceable(8) %"class.std::basic_ostream"* @_ZNSolsEi(%"class.std::basic_ostream"* nonnull align 8 dereferenceable(8) @_ZSt4cout, i32 %34)
  %36 = load i32, i32* %1, align 4, !tbaa !5
  %37 = sub nsw i32 %36, %124
  %38 = icmp sgt i32 %37, 1
  br i1 %38, label %129, label %140

39:                                               ; preds = %23, %123
  %40 = phi i64 [ 0, %23 ], [ %128, %123 ]
  %41 = phi i64 [ %26, %23 ], [ %127, %123 ]
  %42 = phi i64 [ %24, %23 ], [ %126, %123 ]
  %43 = phi i32 [ 0, %23 ], [ %124, %123 ]
  %44 = add i64 %29, %40
  %45 = add i64 %44, -8
  %46 = lshr i64 %45, 3
  %47 = add nuw nsw i64 %46, 1
  %48 = add i64 %28, %40
  %49 = getelementptr inbounds [110000 x i32], [110000 x i32]* %3, i64 0, i64 %41
  %50 = load i32, i32* %49, align 4, !tbaa !5
  %51 = icmp eq i32 %50, %21
  br i1 %51, label %52, label %123

52:                                               ; preds = %39
  %53 = icmp sgt i64 %41, %24
  br i1 %53, label %121, label %54

54:                                               ; preds = %52
  %55 = icmp ult i64 %48, 8
  br i1 %55, label %112, label %56

56:                                               ; preds = %54
  %57 = and i64 %48, -8
  %58 = add i64 %42, %57
  %59 = and i64 %47, 1
  %60 = icmp ult i64 %45, 8
  br i1 %60, label %94, label %61

61:                                               ; preds = %56
  %62 = and i64 %47, 4611686018427387902
  br label %63

63:                                               ; preds = %63, %61
  %64 = phi i64 [ 0, %61 ], [ %91, %63 ]
  %65 = phi i64 [ %62, %61 ], [ %92, %63 ]
  %66 = add i64 %42, %64
  %67 = add nsw i64 %66, 1
  %68 = getelementptr inbounds [110000 x i32], [110000 x i32]* %3, i64 0, i64 %67
  %69 = bitcast i32* %68 to <4 x i32>*
  %70 = load <4 x i32>, <4 x i32>* %69, align 4, !tbaa !5
  %71 = getelementptr inbounds i32, i32* %68, i64 4
  %72 = bitcast i32* %71 to <4 x i32>*
  %73 = load <4 x i32>, <4 x i32>* %72, align 4, !tbaa !5
  %74 = getelementptr inbounds [110000 x i32], [110000 x i32]* %3, i64 0, i64 %66
  %75 = bitcast i32* %74 to <4 x i32>*
  store <4 x i32> %70, <4 x i32>* %75, align 4, !tbaa !5
  %76 = getelementptr inbounds i32, i32* %74, i64 4
  %77 = bitcast i32* %76 to <4 x i32>*
  store <4 x i32> %73, <4 x i32>* %77, align 4, !tbaa !5
  %78 = or i64 %64, 8
  %79 = add i64 %42, %78
  %80 = add nsw i64 %79, 1
  %81 = getelementptr inbounds [110000 x i32], [110000 x i32]* %3, i64 0, i64 %80
  %82 = bitcast i32* %81 to <4 x i32>*
  %83 = load <4 x i32>, <4 x i32>* %82, align 4, !tbaa !5
  %84 = getelementptr inbounds i32, i32* %81, i64 4
  %85 = bitcast i32* %84 to <4 x i32>*
  %86 = load <4 x i32>, <4 x i32>* %85, align 4, !tbaa !5
  %87 = getelementptr inbounds [110000 x i32], [110000 x i32]* %3, i64 0, i64 %79
  %88 = bitcast i32* %87 to <4 x i32>*
  store <4 x i32> %83, <4 x i32>* %88, align 4, !tbaa !5
  %89 = getelementptr inbounds i32, i32* %87, i64 4
  %90 = bitcast i32* %89 to <4 x i32>*
  store <4 x i32> %86, <4 x i32>* %90, align 4, !tbaa !5
  %91 = add nuw i64 %64, 16
  %92 = add i64 %65, -2
  %93 = icmp eq i64 %92, 0
  br i1 %93, label %94, label %63, !llvm.loop !11

94:                                               ; preds = %63, %56
  %95 = phi i64 [ 0, %56 ], [ %91, %63 ]
  %96 = icmp eq i64 %59, 0
  br i1 %96, label %110, label %97

97:                                               ; preds = %94
  %98 = add i64 %42, %95
  %99 = add nsw i64 %98, 1
  %100 = getelementptr inbounds [110000 x i32], [110000 x i32]* %3, i64 0, i64 %99
  %101 = bitcast i32* %100 to <4 x i32>*
  %102 = load <4 x i32>, <4 x i32>* %101, align 4, !tbaa !5
  %103 = getelementptr inbounds i32, i32* %100, i64 4
  %104 = bitcast i32* %103 to <4 x i32>*
  %105 = load <4 x i32>, <4 x i32>* %104, align 4, !tbaa !5
  %106 = getelementptr inbounds [110000 x i32], [110000 x i32]* %3, i64 0, i64 %98
  %107 = bitcast i32* %106 to <4 x i32>*
  store <4 x i32> %102, <4 x i32>* %107, align 4, !tbaa !5
  %108 = getelementptr inbounds i32, i32* %106, i64 4
  %109 = bitcast i32* %108 to <4 x i32>*
  store <4 x i32> %105, <4 x i32>* %109, align 4, !tbaa !5
  br label %110

110:                                              ; preds = %94, %97
  %111 = icmp eq i64 %48, %57
  br i1 %111, label %121, label %112

112:                                              ; preds = %54, %110
  %113 = phi i64 [ %42, %54 ], [ %58, %110 ]
  br label %114

114:                                              ; preds = %112, %114
  %115 = phi i64 [ %116, %114 ], [ %113, %112 ]
  %116 = add nsw i64 %115, 1
  %117 = getelementptr inbounds [110000 x i32], [110000 x i32]* %3, i64 0, i64 %116
  %118 = load i32, i32* %117, align 4, !tbaa !5
  %119 = getelementptr inbounds [110000 x i32], [110000 x i32]* %3, i64 0, i64 %115
  store i32 %118, i32* %119, align 4, !tbaa !5
  %120 = icmp eq i64 %116, %27
  br i1 %120, label %121, label %114, !llvm.loop !13

121:                                              ; preds = %114, %110, %52
  %122 = add nsw i32 %43, 1
  br label %123

123:                                              ; preds = %39, %121
  %124 = phi i32 [ %122, %121 ], [ %43, %39 ]
  %125 = icmp sgt i64 %41, 1
  %126 = add nsw i64 %42, -1
  %127 = add nsw i64 %41, -1
  %128 = add i64 %40, 1
  br i1 %125, label %39, label %30, !llvm.loop !15

129:                                              ; preds = %32, %129
  %130 = phi i64 [ %136, %129 ], [ 2, %32 ]
  %131 = call nonnull align 8 dereferenceable(8) %"class.std::basic_ostream"* @_ZSt16__ostream_insertIcSt11char_traitsIcEERSt13basic_ostreamIT_T0_ES6_PKS3_l(%"class.std::basic_ostream"* nonnull align 8 dereferenceable(8) @_ZSt4cout, i8* nonnull getelementptr inbounds ([2 x i8], [2 x i8]* @.str, i64 0, i64 0), i64 1)
  %132 = getelementptr inbounds [110000 x i32], [110000 x i32]* %3, i64 0, i64 %130
  %133 = load i32, i32* %132, align 4, !tbaa !5
  %134 = call nonnull align 8 dereferenceable(8) %"class.std::basic_ostream"* @_ZNSolsEi(%"class.std::basic_ostream"* nonnull align 8 dereferenceable(8) @_ZSt4cout, i32 %133)
  %135 = load i32, i32* %1, align 4, !tbaa !5
  %136 = add nuw nsw i64 %130, 1
  %137 = sub nsw i32 %135, %124
  %138 = sext i32 %137 to i64
  %139 = icmp slt i64 %130, %138
  br i1 %139, label %129, label %140, !llvm.loop !16

140:                                              ; preds = %129, %18, %32, %30
  call void @llvm.lifetime.end.p0i8(i64 440000, i8* nonnull %7) #6
  call void @llvm.lifetime.end.p0i8(i64 4, i8* nonnull %5) #6
  call void @llvm.lifetime.end.p0i8(i64 4, i8* nonnull %4) #6
  ret i32 0
}

; Function Attrs: argmemonly mustprogress nofree nosync nounwind willreturn
declare void @llvm.lifetime.start.p0i8(i64 immarg, i8* nocapture) #4

declare nonnull align 8 dereferenceable(16) %"class.std::basic_istream"* @_ZNSirsERi(%"class.std::basic_istream"* nonnull align 8 dereferenceable(16), i32* nonnull align 4 dereferenceable(4)) local_unnamed_addr #0

declare nonnull align 8 dereferenceable(8) %"class.std::basic_ostream"* @_ZNSolsEi(%"class.std::basic_ostream"* nonnull align 8 dereferenceable(8), i32) local_unnamed_addr #0

; Function Attrs: argmemonly mustprogress nofree nosync nounwind willreturn
declare void @llvm.lifetime.end.p0i8(i64 immarg, i8* nocapture) #4

declare nonnull align 8 dereferenceable(8) %"class.std::basic_ostream"* @_ZSt16__ostream_insertIcSt11char_traitsIcEERSt13basic_ostreamIT_T0_ES6_PKS3_l(%"class.std::basic_ostream"* nonnull align 8 dereferenceable(8), i8*, i64) local_unnamed_addr #0

; Function Attrs: sspstrong uwtable
define internal void @_GLOBAL__sub_I_1379.cpp() #5 section ".text.startup" {
  tail call void @_ZNSt8ios_base4InitC1Ev(%"class.std::ios_base::Init"* nonnull align 1 dereferenceable(1) @_ZStL8__ioinit)
  %1 = tail call i32 @__cxa_atexit(void (i8*)* bitcast (void (%"class.std::ios_base::Init"*)* @_ZNSt8ios_base4InitD1Ev to void (i8*)*), i8* getelementptr inbounds (%"class.std::ios_base::Init", %"class.std::ios_base::Init"* @_ZStL8__ioinit, i64 0, i32 0), i8* nonnull @__dso_handle) #6
  ret void
}


!llvm.module.flags = !{!0, !1, !2, !3}
!llvm.ident = !{!4}

!0 = !{i32 1, !"wchar_size", i32 4}
!1 = !{i32 7, !"PIC Level", i32 2}
!2 = !{i32 7, !"PIE Level", i32 2}
!3 = !{i32 7, !"uwtable", i32 1}
!4 = !{!"clang version 13.0.0"}
!5 = !{!6, !6, i64 0}
!6 = !{!"int", !7, i64 0}
!7 = !{!"omnipotent char", !8, i64 0}
!8 = !{!"Simple C++ TBAA"}
!9 = distinct !{!9, !10}
!10 = !{!"llvm.loop.mustprogress"}
!11 = distinct !{!11, !10, !12}
!12 = !{!"llvm.loop.isvectorized", i32 1}
!13 = distinct !{!13, !10, !14, !12}
!14 = !{!"llvm.loop.unroll.runtime.disable"}
!15 = distinct !{!15, !10}
!16 = distinct !{!16, !10, !17}
!17 = !{!"llvm.loop.peeled.count", i32 1}
